(lp0
S'feat_001'
p1
aS'feat_002'
p2
aS'feat_003'
p3
aS'feat_004'
p4
aS'feat_005'
p5
aS'feat_006'
p6
aS'feat_007'
p7
aS'feat_008'
p8
aS'feat_009'
p9
aS'feat_010'
p10
aS'feat_011'
p11
aS'feat_012'
p12
aS'feat_013'
p13
aS'feat_014'
p14
aS'feat_015'
p15
aS'feat_016'
p16
aS'feat_017'
p17
aS'feat_018'
p18
aS'feat_019'
p19
aS'feat_020'
p20
aS'feat_021'
p21
aS'feat_022'
p22
aS'feat_023'
p23
aS'feat_024'
p24
aS'feat_025'
p25
aS'feat_026'
p26
aS'feat_027'
p27
aS'feat_028'
p28
aS'feat_029'
p29
aS'feat_030'
p30
aS'feat_031'
p31
aS'feat_032'
p32
aS'feat_033'
p33
aS'feat_034'
p34
aS'feat_035'
p35
aS'feat_036'
p36
aS'feat_037'
p37
aS'feat_038'
p38
aS'feat_039'
p39
aS'feat_040'
p40
aS'feat_041'
p41
aS'feat_042'
p42
aS'feat_043'
p43
aS'feat_044'
p44
aS'feat_045'
p45
aS'feat_046'
p46
aS'feat_047'
p47
aS'feat_048'
p48
aS'feat_049'
p49
aS'feat_050'
p50
aS'feat_051'
p51
aS'feat_052'
p52
aS'feat_053'
p53
aS'feat_054'
p54
aS'feat_055'
p55
aS'feat_056'
p56
aS'feat_057'
p57
aS'feat_058'
p58
aS'feat_059'
p59
aS'feat_060'
p60
aS'feat_061'
p61
aS'feat_062'
p62
aS'feat_063'
p63
aS'feat_064'
p64
aS'feat_065'
p65
aS'feat_066'
p66
aS'feat_067'
p67
aS'feat_068'
p68
aS'feat_069'
p69
aS'feat_070'
p70
aS'feat_071'
p71
aS'feat_072'
p72
aS'feat_073'
p73
aS'feat_074'
p74
aS'feat_075'
p75
aS'feat_076'
p76
aS'feat_077'
p77
aS'feat_078'
p78
aS'feat_079'
p79
aS'feat_080'
p80
aS'feat_081'
p81
aS'feat_082'
p82
aS'feat_083'
p83
aS'feat_084'
p84
aS'feat_085'
p85
aS'feat_086'
p86
aS'feat_087'
p87
aS'feat_088'
p88
aS'feat_089'
p89
aS'feat_090'
p90
aS'feat_091'
p91
aS'feat_092'
p92
aS'feat_093'
p93
aS'feat_094'
p94
aS'feat_095'
p95
aS'feat_096'
p96
aS'feat_097'
p97
aS'feat_098'
p98
aS'feat_099'
p99
aS'feat_100'
p100
aS'feat_101'
p101
aS'feat_102'
p102
aS'feat_103'
p103
aS'feat_104'
p104
aS'feat_105'
p105
aS'feat_106'
p106
aS'feat_107'
p107
aS'feat_108'
p108
aS'feat_109'
p109
aS'feat_110'
p110
aS'feat_111'
p111
aS'feat_112'
p112
aS'feat_113'
p113
aS'feat_114'
p114
aS'feat_115'
p115
aS'feat_116'
p116
aS'feat_117'
p117
aS'feat_118'
p118
aS'feat_119'
p119
aS'feat_120'
p120
aS'feat_121'
p121
aS'feat_122'
p122
aS'feat_123'
p123
aS'feat_124'
p124
aS'feat_125'
p125
aS'feat_126'
p126
aS'feat_127'
p127
aS'feat_128'
p128
aS'feat_129'
p129
aS'feat_130'
p130
aS'feat_131'
p131
aS'feat_132'
p132
aS'feat_133'
p133
aS'feat_134'
p134
aS'feat_135'
p135
aS'feat_136'
p136
aS'feat_137'
p137
aS'feat_138'
p138
aS'feat_139'
p139
aS'feat_140'
p140
aS'feat_141'
p141
aS'feat_142'
p142
aS'feat_143'
p143
aS'feat_144'
p144
aS'feat_145'
p145
aS'feat_146'
p146
aS'feat_147'
p147
aS'feat_148'
p148
aS'feat_149'
p149
aS'feat_150'
p150
aS'feat_151'
p151
aS'feat_152'
p152
aS'feat_153'
p153
aS'feat_154'
p154
aS'feat_155'
p155
aS'feat_156'
p156
aS'feat_157'
p157
aS'feat_158'
p158
aS'feat_159'
p159
aS'feat_160'
p160
aS'feat_161'
p161
aS'feat_162'
p162
aS'feat_163'
p163
aS'feat_164'
p164
aS'feat_165'
p165
aS'feat_166'
p166
aS'feat_167'
p167
aS'feat_168'
p168
aS'feat_169'
p169
aS'feat_170'
p170
aS'feat_171'
p171
aS'feat_172'
p172
aS'feat_173'
p173
aS'feat_174'
p174
aS'feat_175'
p175
aS'feat_176'
p176
aS'feat_177'
p177
aS'feat_178'
p178
aS'feat_179'
p179
aS'feat_180'
p180
aS'feat_181'
p181
aS'feat_182'
p182
aS'feat_183'
p183
aS'feat_184'
p184
aS'feat_185'
p185
aS'feat_186'
p186
aS'feat_187'
p187
aS'feat_188'
p188
aS'feat_189'
p189
aS'feat_190'
p190
aS'feat_191'
p191
aS'feat_192'
p192
aS'feat_193'
p193
aS'feat_194'
p194
aS'feat_195'
p195
aS'feat_196'
p196
aS'feat_197'
p197
aS'feat_198'
p198
aS'feat_199'
p199
aS'feat_200'
p200
aS'feat_201'
p201
aS'feat_202'
p202
aS'feat_203'
p203
aS'feat_204'
p204
aS'feat_205'
p205
aS'feat_206'
p206
aS'feat_207'
p207
aS'feat_208'
p208
aS'feat_209'
p209
aS'feat_210'
p210
aS'feat_211'
p211
aS'feat_212'
p212
aS'feat_213'
p213
aS'feat_214'
p214
aS'feat_215'
p215
aS'feat_216'
p216
aS'feat_217'
p217
aS'feat_218'
p218
aS'feat_219'
p219
aS'feat_220'
p220
aS'feat_221'
p221
aS'feat_222'
p222
aS'feat_223'
p223
aS'feat_224'
p224
aS'feat_225'
p225
aS'feat_226'
p226
aS'feat_227'
p227
aS'feat_228'
p228
aS'feat_229'
p229
aS'feat_230'
p230
aS'feat_231'
p231
aS'feat_232'
p232
aS'feat_233'
p233
aS'feat_234'
p234
aS'feat_235'
p235
aS'feat_236'
p236
aS'feat_237'
p237
aS'feat_238'
p238
aS'feat_239'
p239
aS'feat_240'
p240
aS'feat_241'
p241
aS'feat_242'
p242
aS'feat_243'
p243
aS'feat_244'
p244
aS'feat_245'
p245
aS'feat_246'
p246
aS'feat_247'
p247
aS'feat_248'
p248
aS'feat_249'
p249
aS'feat_250'
p250
aS'feat_251'
p251
aS'feat_252'
p252
aS'feat_253'
p253
aS'feat_254'
p254
aS'feat_255'
p255
aS'feat_256'
p256
aS'double'
p257
aS'num_unique_elem'
p258
aS'num_valence_elec'
p259
aS'ring_count'
p260
aS'H_donors'
p261
aS'H_acceptors'
p262
aS'num_atoms'
p263
aS'len'
p264
a.